; Function Attrs: mustprogress nounwind uwtable
define internal fastcc noundef ptr @_ZN12_GLOBAL__N_117ScalarExprEmitter16VisitUnaryPreIncEPKN5clang13UnaryOperatorE(ptr noundef nonnull align 8 dereferenceable(32) %0, ptr noundef %1) unnamed_addr #0 align 2 {
  %3 = alloca %"class.clang::CodeGen::LValue", align 8
  %4 = getelementptr inbounds nuw i8, ptr %1, i64 16
  %5 = load ptr, ptr %4, align 8
  %.val = load ptr, ptr %0, align 8
  call void @_ZN5clang7CodeGen15CodeGenFunction10EmitLValueEPKNS_4ExprENS0_14KnownNonNull_tE(ptr dead_on_unwind nonnull writable sret(%"class.clang::CodeGen::LValue") align 8 %3, ptr noundef nonnull align 8 dereferenceable(6488) %.val, ptr noundef %5, i32 noundef 0) #19
  %6 = call fastcc noundef ptr @_ZN12_GLOBAL__N_117ScalarExprEmitter23EmitScalarPrePostIncDecEPKN5clang13UnaryOperatorENS1_7CodeGen6LValueEbb(ptr noundef nonnull align 8 dereferenceable(32) %0, ptr noundef nonnull %1, ptr noundef nonnull byval(%"class.clang::CodeGen::LValue") align 8 %3, i1 noundef zeroext true, i1 noundef zeroext true)
  ret ptr %6
}